target datalayout = "e-m:e-p270:32:32-p271:32:32-p272:64:64-i64:64-i128:128-f80:128-n8:16:32:64-S128"
target triple = "x86_64-pc-linux-gnu"

%"class.llvm::SmallVectorBase" = type { ptr, i32, i32 }
%"class.std::_Function_base" = type { %"union.std::_Any_data", ptr }
%"union.std::_Any_data" = type { %"union.std::_Nocopy_types" }
%"union.std::_Nocopy_types" = type { { i64, i64 } }
%"class.llvm::OptimizationLevel" = type { i32, i32 }
%"class.std::__cxx11::basic_string" = type { %"struct.std::__cxx11::basic_string<char>::_Alloc_hider", i64, %union.anon }
%"struct.std::__cxx11::basic_string<char>::_Alloc_hider" = type { ptr }
%union.anon = type { i64, [8 x i8] }
%"class.llvm::PipelineTuningOptions" = type <{ i8, i8, i8, i8, i8, [3 x i8], i32, i32, i8, i8, i8, i8, i32, i8, [3 x i8] }>
%"class.llvm::PassBuilder" = type { ptr, %"class.llvm::PipelineTuningOptions", [4 x i8], %"class.std::optional", ptr, %"class.llvm::SmallVector.70", %"class.llvm::SmallVector.75", %"class.llvm::SmallVector.75", %"class.llvm::SmallVector.70", %"class.llvm::SmallVector.80", %"class.llvm::SmallVector.70", %"class.llvm::SmallVector.85", %"class.llvm::SmallVector.85", %"class.llvm::SmallVector.85", %"class.llvm::SmallVector.85", %"class.llvm::SmallVector.85", %"class.llvm::SmallVector.85", %"class.llvm::SmallVector.90", %"class.llvm::SmallVector.95", %"class.llvm::SmallVector.100", %"class.llvm::SmallVector.105", %"class.llvm::SmallVector.110", %"class.llvm::SmallVector.115", %"class.llvm::SmallVector.120", %"class.llvm::SmallVector.125", %"class.llvm::SmallVector.130", %"class.llvm::SmallVector.135", %"class.llvm::SmallVector.140", %"class.llvm::SmallVector.145", %"class.llvm::SmallVector.150" }
%"class.std::optional" = type { %"struct.std::_Optional_base" }
%"struct.std::_Optional_base" = type { %"struct.std::_Optional_payload" }
%"struct.std::_Optional_payload" = type { %"struct.std::_Optional_payload.base", [7 x i8] }
%"struct.std::_Optional_payload.base" = type { %"struct.std::_Optional_payload_base.base" }
%"struct.std::_Optional_payload_base.base" = type <{ %"union.std::_Optional_payload_base<llvm::PGOOptions>::_Storage", i8 }>
%"union.std::_Optional_payload_base<llvm::PGOOptions>::_Storage" = type { %"struct.llvm::PGOOptions" }
%"struct.llvm::PGOOptions" = type { %"class.std::__cxx11::basic_string", %"class.std::__cxx11::basic_string", %"class.std::__cxx11::basic_string", %"class.std::__cxx11::basic_string", i32, i32, i32, i8, i8, i8, %"class.llvm::IntrusiveRefCntPtr" }
%"class.llvm::IntrusiveRefCntPtr" = type { ptr }
%"class.llvm::SmallVector.75" = type { %"class.llvm::SmallVectorImpl.76", %"struct.llvm::SmallVectorStorage.79" }
%"class.llvm::SmallVectorImpl.76" = type { %"class.llvm::SmallVectorTemplateBase.77" }
%"class.llvm::SmallVectorTemplateBase.77" = type { %"class.llvm::SmallVectorTemplateCommon.78" }
%"class.llvm::SmallVectorTemplateCommon.78" = type { %"class.llvm::SmallVectorBase" }
%"struct.llvm::SmallVectorStorage.79" = type { [64 x i8] }
%"class.llvm::SmallVector.80" = type { %"class.llvm::SmallVectorImpl.81", %"struct.llvm::SmallVectorStorage.84" }
%"class.llvm::SmallVectorImpl.81" = type { %"class.llvm::SmallVectorTemplateBase.82" }
%"class.llvm::SmallVectorTemplateBase.82" = type { %"class.llvm::SmallVectorTemplateCommon.83" }
%"class.llvm::SmallVectorTemplateCommon.83" = type { %"class.llvm::SmallVectorBase" }
%"struct.llvm::SmallVectorStorage.84" = type { [64 x i8] }
%"class.llvm::SmallVector.70" = type { %"class.llvm::SmallVectorImpl.71", %"struct.llvm::SmallVectorStorage.74" }
%"class.llvm::SmallVectorImpl.71" = type { %"class.llvm::SmallVectorTemplateBase.72" }
%"class.llvm::SmallVectorTemplateBase.72" = type { %"class.llvm::SmallVectorTemplateCommon.73" }
%"class.llvm::SmallVectorTemplateCommon.73" = type { %"class.llvm::SmallVectorBase" }
%"struct.llvm::SmallVectorStorage.74" = type { [64 x i8] }
%"class.llvm::SmallVector.85" = type { %"class.llvm::SmallVectorImpl.86", %"struct.llvm::SmallVectorStorage.89" }
%"class.llvm::SmallVectorImpl.86" = type { %"class.llvm::SmallVectorTemplateBase.87" }
%"class.llvm::SmallVectorTemplateBase.87" = type { %"class.llvm::SmallVectorTemplateCommon.88" }
%"class.llvm::SmallVectorTemplateCommon.88" = type { %"class.llvm::SmallVectorBase" }
%"struct.llvm::SmallVectorStorage.89" = type { [64 x i8] }
%"class.llvm::SmallVector.90" = type { %"class.llvm::SmallVectorImpl.91", %"struct.llvm::SmallVectorStorage.94" }
%"class.llvm::SmallVectorImpl.91" = type { %"class.llvm::SmallVectorTemplateBase.92" }
%"class.llvm::SmallVectorTemplateBase.92" = type { %"class.llvm::SmallVectorTemplateCommon.93" }
%"class.llvm::SmallVectorTemplateCommon.93" = type { %"class.llvm::SmallVectorBase" }
%"struct.llvm::SmallVectorStorage.94" = type { [64 x i8] }
%"class.llvm::SmallVector.95" = type { %"class.llvm::SmallVectorImpl.96", %"struct.llvm::SmallVectorStorage.99" }
%"class.llvm::SmallVectorImpl.96" = type { %"class.llvm::SmallVectorTemplateBase.97" }
%"class.llvm::SmallVectorTemplateBase.97" = type { %"class.llvm::SmallVectorTemplateCommon.98" }
%"class.llvm::SmallVectorTemplateCommon.98" = type { %"class.llvm::SmallVectorBase" }
%"struct.llvm::SmallVectorStorage.99" = type { [64 x i8] }
%"class.llvm::SmallVector.100" = type { %"class.llvm::SmallVectorImpl.101", %"struct.llvm::SmallVectorStorage.104" }
%"class.llvm::SmallVectorImpl.101" = type { %"class.llvm::SmallVectorTemplateBase.102" }
%"class.llvm::SmallVectorTemplateBase.102" = type { %"class.llvm::SmallVectorTemplateCommon.103" }
%"class.llvm::SmallVectorTemplateCommon.103" = type { %"class.llvm::SmallVectorBase" }
%"struct.llvm::SmallVectorStorage.104" = type { [64 x i8] }
%"class.llvm::SmallVector.105" = type { %"class.llvm::SmallVectorImpl.106", %"struct.llvm::SmallVectorStorage.109" }
%"class.llvm::SmallVectorImpl.106" = type { %"class.llvm::SmallVectorTemplateBase.107" }
%"class.llvm::SmallVectorTemplateBase.107" = type { %"class.llvm::SmallVectorTemplateCommon.108" }
%"class.llvm::SmallVectorTemplateCommon.108" = type { %"class.llvm::SmallVectorBase" }
%"struct.llvm::SmallVectorStorage.109" = type { [64 x i8] }
%"class.llvm::SmallVector.110" = type { %"class.llvm::SmallVectorImpl.111", %"struct.llvm::SmallVectorStorage.114" }
%"class.llvm::SmallVectorImpl.111" = type { %"class.llvm::SmallVectorTemplateBase.112" }
%"class.llvm::SmallVectorTemplateBase.112" = type { %"class.llvm::SmallVectorTemplateCommon.113" }
%"class.llvm::SmallVectorTemplateCommon.113" = type { %"class.llvm::SmallVectorBase" }
%"struct.llvm::SmallVectorStorage.114" = type { [64 x i8] }
%"class.llvm::SmallVector.115" = type { %"class.llvm::SmallVectorImpl.116", %"struct.llvm::SmallVectorStorage.119" }
%"class.llvm::SmallVectorImpl.116" = type { %"class.llvm::SmallVectorTemplateBase.117" }
%"class.llvm::SmallVectorTemplateBase.117" = type { %"class.llvm::SmallVectorTemplateCommon.118" }
%"class.llvm::SmallVectorTemplateCommon.118" = type { %"class.llvm::SmallVectorBase" }
%"struct.llvm::SmallVectorStorage.119" = type { [64 x i8] }
%"class.llvm::SmallVector.120" = type { %"class.llvm::SmallVectorImpl.121", %"struct.llvm::SmallVectorStorage.124" }
%"class.llvm::SmallVectorImpl.121" = type { %"class.llvm::SmallVectorTemplateBase.122" }
%"class.llvm::SmallVectorTemplateBase.122" = type { %"class.llvm::SmallVectorTemplateCommon.123" }
%"class.llvm::SmallVectorTemplateCommon.123" = type { %"class.llvm::SmallVectorBase" }
%"struct.llvm::SmallVectorStorage.124" = type { [64 x i8] }
%"class.llvm::SmallVector.125" = type { %"class.llvm::SmallVectorImpl.126", %"struct.llvm::SmallVectorStorage.129" }
%"class.llvm::SmallVectorImpl.126" = type { %"class.llvm::SmallVectorTemplateBase.127" }
%"class.llvm::SmallVectorTemplateBase.127" = type { %"class.llvm::SmallVectorTemplateCommon.128" }
%"class.llvm::SmallVectorTemplateCommon.128" = type { %"class.llvm::SmallVectorBase" }
%"struct.llvm::SmallVectorStorage.129" = type { [64 x i8] }
%"class.llvm::SmallVector.130" = type { %"class.llvm::SmallVectorImpl.131", %"struct.llvm::SmallVectorStorage.134" }
%"class.llvm::SmallVectorImpl.131" = type { %"class.llvm::SmallVectorTemplateBase.132" }
%"class.llvm::SmallVectorTemplateBase.132" = type { %"class.llvm::SmallVectorTemplateCommon.133" }
%"class.llvm::SmallVectorTemplateCommon.133" = type { %"class.llvm::SmallVectorBase" }
%"struct.llvm::SmallVectorStorage.134" = type { [64 x i8] }
%"class.llvm::SmallVector.135" = type { %"class.llvm::SmallVectorImpl.136", %"struct.llvm::SmallVectorStorage.139" }
%"class.llvm::SmallVectorImpl.136" = type { %"class.llvm::SmallVectorTemplateBase.137" }
%"class.llvm::SmallVectorTemplateBase.137" = type { %"class.llvm::SmallVectorTemplateCommon.138" }
%"class.llvm::SmallVectorTemplateCommon.138" = type { %"class.llvm::SmallVectorBase" }
%"struct.llvm::SmallVectorStorage.139" = type { [64 x i8] }
%"class.llvm::SmallVector.140" = type { %"class.llvm::SmallVectorImpl.141", %"struct.llvm::SmallVectorStorage.144" }
%"class.llvm::SmallVectorImpl.141" = type { %"class.llvm::SmallVectorTemplateBase.142" }
%"class.llvm::SmallVectorTemplateBase.142" = type { %"class.llvm::SmallVectorTemplateCommon.143" }
%"class.llvm::SmallVectorTemplateCommon.143" = type { %"class.llvm::SmallVectorBase" }
%"struct.llvm::SmallVectorStorage.144" = type { [64 x i8] }
%"class.llvm::SmallVector.145" = type { %"class.llvm::SmallVectorImpl.146", %"struct.llvm::SmallVectorStorage.149" }
%"class.llvm::SmallVectorImpl.146" = type { %"class.llvm::SmallVectorTemplateBase.147" }
%"class.llvm::SmallVectorTemplateBase.147" = type { %"class.llvm::SmallVectorTemplateCommon.148" }
%"class.llvm::SmallVectorTemplateCommon.148" = type { %"class.llvm::SmallVectorBase" }
%"struct.llvm::SmallVectorStorage.149" = type { [64 x i8] }
%"class.llvm::SmallVector.150" = type { %"class.llvm::SmallVectorImpl.151", %"struct.llvm::SmallVectorStorage.154" }
%"class.llvm::SmallVectorImpl.151" = type { %"class.llvm::SmallVectorTemplateBase.152" }
%"class.llvm::SmallVectorTemplateBase.152" = type { %"class.llvm::SmallVectorTemplateCommon.153" }
%"class.llvm::SmallVectorTemplateCommon.153" = type { %"class.llvm::SmallVectorBase" }
%"struct.llvm::SmallVectorStorage.154" = type { [64 x i8] }
%"class.std::function.180" = type { %"class.std::_Function_base", ptr }

; Function Attrs: mustprogress nounwind uwtable
define linkonce_odr hidden noundef zeroext i1 @_ZNKSt14_Function_base8_M_emptyEv(ptr noundef nonnull align 8 dereferenceable(24) %0) #1 comdat align 2 {
  %2 = alloca ptr, align 8
  store ptr %0, ptr %2, align 8
  %3 = load ptr, ptr %2, align 8
  %4 = getelementptr inbounds nuw %"class.std::_Function_base", ptr %3, i32 0, i32 1
  %5 = load ptr, ptr %4, align 8
  %6 = icmp ne ptr %5, null
  %7 = xor i1 %6, true
  ret i1 %7
}

; Function Attrs: mustprogress nounwind uwtable
define linkonce_odr hidden void @_ZNKSt8functionIFvRN4llvm11PassManagerINS0_13LazyCallGraph3SCCENS0_15AnalysisManagerIS3_JRS2_EEEJS5_RNS0_17CGSCCUpdateResultEEEENS0_17OptimizationLevelEEEclESA_SB_(ptr noundef nonnull align 8 dereferenceable(32) %0, ptr noundef nonnull align 8 dereferenceable(24) %1, i64 %2) #1 comdat align 2 {
  %4 = alloca %"class.llvm::OptimizationLevel", align 4
  %5 = alloca ptr, align 8
  %6 = alloca ptr, align 8
  store i64 %2, ptr %4, align 4
  store ptr %0, ptr %5, align 8
  store ptr %1, ptr %6, align 8
  %7 = load ptr, ptr %5, align 8
  %8 = call noundef zeroext i1 @_ZNKSt14_Function_base8_M_emptyEv(ptr noundef nonnull align 8 dereferenceable(24) %7)
  br i1 %8, label %9, label %10

9:                                                ; preds = %3
  call void @_ZSt25__throw_bad_function_callv() #14
  unreachable

10:                                               ; preds = %3
  %11 = getelementptr inbounds nuw %"class.std::function.180", ptr %7, i32 0, i32 1
  %12 = load ptr, ptr %11, align 8
  %13 = getelementptr inbounds nuw %"class.std::_Function_base", ptr %7, i32 0, i32 0
  %14 = load ptr, ptr %6, align 8
  call void %12(ptr noundef nonnull align 8 dereferenceable(16) %13, ptr noundef nonnull align 8 dereferenceable(24) %14, ptr noundef nonnull align 4 dereferenceable(8) %4)
  ret void
}

; Function Attrs: mustprogress nounwind uwtable
define linkonce_odr hidden noundef ptr @_ZN4llvm25SmallVectorTemplateCommonISt8functionIFvRNS_11PassManagerINS_13LazyCallGraph3SCCENS_15AnalysisManagerIS4_JRS3_EEEJS6_RNS_17CGSCCUpdateResultEEEENS_17OptimizationLevelEEEvE3endEv(ptr noundef nonnull align 8 dereferenceable(16) %0) #1 comdat align 2 {
  %2 = alloca ptr, align 8
  store ptr %0, ptr %2, align 8
  %3 = load ptr, ptr %2, align 8
  %4 = call noundef ptr @_ZN4llvm25SmallVectorTemplateCommonISt8functionIFvRNS_11PassManagerINS_13LazyCallGraph3SCCENS_15AnalysisManagerIS4_JRS3_EEEJS6_RNS_17CGSCCUpdateResultEEEENS_17OptimizationLevelEEEvE5beginEv(ptr noundef nonnull align 8 dereferenceable(16) %3)
  %5 = call noundef i64 @_ZNK4llvm15SmallVectorBaseIjE4sizeEv(ptr noundef nonnull align 8 dereferenceable(16) %3)
  %6 = getelementptr inbounds %"class.std::function.180", ptr %4, i64 %5
  ret ptr %6
}

; Function Attrs: mustprogress nounwind uwtable
define linkonce_odr hidden noundef ptr @_ZN4llvm25SmallVectorTemplateCommonISt8functionIFvRNS_11PassManagerINS_13LazyCallGraph3SCCENS_15AnalysisManagerIS4_JRS3_EEEJS6_RNS_17CGSCCUpdateResultEEEENS_17OptimizationLevelEEEvE5beginEv(ptr noundef nonnull align 8 dereferenceable(16) %0) #1 comdat align 2 {
  %2 = alloca ptr, align 8
  store ptr %0, ptr %2, align 8
  %3 = load ptr, ptr %2, align 8
  %4 = getelementptr inbounds nuw %"class.llvm::SmallVectorBase", ptr %3, i32 0, i32 0
  %5 = load ptr, ptr %4, align 8
  ret ptr %5
}

; Function Attrs: mustprogress nounwind uwtable
define dso_local void @_ZN4llvm11PassBuilder35invokeCGSCCOptimizerLateEPCallbacksERNS_11PassManagerINS_13LazyCallGraph3SCCENS_15AnalysisManagerIS3_JRS2_EEEJS5_RNS_17CGSCCUpdateResultEEEENS_17OptimizationLevelE(ptr noundef nonnull align 8 dereferenceable(2208) %0, ptr noundef nonnull align 8 dereferenceable(24) %1, i64 %2) #1 align 2 {
  %4 = alloca %"class.llvm::OptimizationLevel", align 4
  %5 = alloca ptr, align 8
  %6 = alloca ptr, align 8
  %7 = alloca ptr, align 8
  %8 = alloca ptr, align 8
  %9 = alloca ptr, align 8
  %10 = alloca ptr, align 8
  %11 = alloca %"class.llvm::OptimizationLevel", align 4
  store i64 %2, ptr %4, align 4
  store ptr %0, ptr %5, align 8
  store ptr %1, ptr %6, align 8
  %12 = load ptr, ptr %5, align 8
  %13 = getelementptr inbounds nuw %"class.llvm::PassBuilder", ptr %12, i32 0, i32 9
  store ptr %13, ptr %7, align 8
  %14 = load ptr, ptr %7, align 8
  %15 = call noundef ptr @_ZN4llvm25SmallVectorTemplateCommonISt8functionIFvRNS_11PassManagerINS_13LazyCallGraph3SCCENS_15AnalysisManagerIS4_JRS3_EEEJS6_RNS_17CGSCCUpdateResultEEEENS_17OptimizationLevelEEEvE5beginEv(ptr noundef nonnull align 8 dereferenceable(16) %14)
  store ptr %15, ptr %8, align 8
  %16 = load ptr, ptr %7, align 8
  %17 = call noundef ptr @_ZN4llvm25SmallVectorTemplateCommonISt8functionIFvRNS_11PassManagerINS_13LazyCallGraph3SCCENS_15AnalysisManagerIS4_JRS3_EEEJS6_RNS_17CGSCCUpdateResultEEEENS_17OptimizationLevelEEEvE3endEv(ptr noundef nonnull align 8 dereferenceable(16) %16)
  store ptr %17, ptr %9, align 8
  br label %18

18:                                               ; preds = %27, %3
  %19 = load ptr, ptr %8, align 8
  %20 = load ptr, ptr %9, align 8
  %21 = icmp ne ptr %19, %20
  br i1 %21, label %22, label %30

22:                                               ; preds = %18
  %23 = load ptr, ptr %8, align 8
  store ptr %23, ptr %10, align 8
  %24 = load ptr, ptr %10, align 8
  %25 = load ptr, ptr %6, align 8
  call void @llvm.memcpy.p0.p0.i64(ptr align 4 %11, ptr align 4 %4, i64 8, i1 false)
  %26 = load i64, ptr %11, align 4
  call void @_ZNKSt8functionIFvRN4llvm11PassManagerINS0_13LazyCallGraph3SCCENS0_15AnalysisManagerIS3_JRS2_EEEJS5_RNS0_17CGSCCUpdateResultEEEENS0_17OptimizationLevelEEEclESA_SB_(ptr noundef nonnull align 8 dereferenceable(32) %24, ptr noundef nonnull align 8 dereferenceable(24) %25, i64 %26)
  br label %27

27:                                               ; preds = %22
  %28 = load ptr, ptr %8, align 8
  %29 = getelementptr inbounds %"class.std::function.180", ptr %28, i32 1
  store ptr %29, ptr %8, align 8
  br label %18

30:                                               ; preds = %18
  ret void
}